; Function Attrs: mustprogress uwtable
define void @_ZN7rocksdb22BlockBasedTableBuilder7AbandonEv(ptr nocapture noundef nonnull readonly align 8 dereferenceable(24) %this) unnamed_addr #3 align 2 {
entry:
  %rep_ = getelementptr inbounds i8, ptr %this, i64 8
  %0 = load ptr, ptr %rep_, align 8
  %parallel_threads.i = getelementptr inbounds i8, ptr %0, i64 1724
  %1 = load i32, ptr %parallel_threads.i, align 4
  %cmp.i = icmp ugt i32 %1, 1
  br i1 %cmp.i, label %if.then, label %if.end

if.then:                                          ; preds = %entry
  tail call void @_ZN7rocksdb22BlockBasedTableBuilder23StopParallelCompressionEv(ptr noundef nonnull align 8 dereferenceable(24) %this)
  %.pre = load ptr, ptr %rep_, align 8
  br label %if.end

if.end:                                           ; preds = %if.then, %entry
  %2 = phi ptr [ %.pre, %if.then ], [ %0, %entry ]
  %state = getelementptr inbounds i8, ptr %2, i64 2528
  store i32 2, ptr %state, align 8
  ret void
}